; Function Attrs: nounwind uwtable
define internal i32 @pmix41_bfrops_base_pack_sizet(ptr noundef %0, ptr noundef %1, ptr noundef %2, i32 noundef %3, i16 zeroext %4) #0 {
  %6 = load i8, ptr getelementptr inbounds nuw (i8, ptr @pmix_psquash, i64 8), align 8, !tbaa !40, !range !43, !noundef !44
  %7 = icmp eq i8 %6, 0
  br i1 %7, label %8, label %10

8:                                                ; preds = %5
  %9 = tail call i32 @pmix_bfrop_store_data_type(ptr noundef %0, ptr noundef %1, i16 noundef zeroext 15) #14
  %.not = icmp eq i32 %9, 0
  br i1 %.not, label %10, label %pmix_pointer_array_get_item.exit.thread

10:                                               ; preds = %5, %8
  %11 = getelementptr inbounds nuw i8, ptr %0, i64 128
  %12 = load i32, ptr %11, align 8, !tbaa !45
  %.not.i = icmp sgt i32 %12, 15
  br i1 %.not.i, label %pmix_pointer_array_get_item.exit, label %pmix_pointer_array_get_item.exit.thread, !prof !46

pmix_pointer_array_get_item.exit:                 ; preds = %10
  %13 = getelementptr inbounds nuw i8, ptr %0, i64 152
  %14 = load ptr, ptr %13, align 8, !tbaa !35
  %15 = getelementptr inbounds nuw i8, ptr %14, i64 120
  %16 = load ptr, ptr %15, align 8, !tbaa !19
  %17 = icmp eq ptr %16, null
  br i1 %17, label %pmix_pointer_array_get_item.exit.thread, label %18

18:                                               ; preds = %pmix_pointer_array_get_item.exit
  %19 = getelementptr inbounds nuw i8, ptr %16, i64 136
  %20 = load ptr, ptr %19, align 8, !tbaa !26
  %21 = tail call i32 %20(ptr noundef nonnull %0, ptr noundef %1, ptr noundef %2, i32 noundef %3, i16 noundef zeroext 15) #14
  br label %pmix_pointer_array_get_item.exit.thread

pmix_pointer_array_get_item.exit.thread:          ; preds = %10, %18, %pmix_pointer_array_get_item.exit, %8
  %.0 = phi i32 [ %9, %8 ], [ %21, %18 ], [ -16, %pmix_pointer_array_get_item.exit ], [ -16, %10 ]
  ret i32 %.0
}